target datalayout = "e-m:e-p270:32:32-p271:32:32-p272:64:64-i64:64-i128:128-f80:128-n8:16:32:64-S128"
target triple = "x86_64-pc-linux-gnu"

; Function Attrs: nounwind uwtable
define internal i32 @RsaMGF1(i32 noundef %0, ptr noundef %1, i32 noundef %2, ptr noundef %3, i32 noundef %4, ptr noundef %5) #0 {
  %7 = alloca i32, align 4
  %8 = alloca i32, align 4
  %9 = alloca ptr, align 8
  %10 = alloca i32, align 4
  %11 = alloca ptr, align 8
  %12 = alloca i32, align 4
  %13 = alloca ptr, align 8
  %14 = alloca [512 x i8], align 16
  %15 = alloca [68 x i8], align 16
  %16 = alloca i32, align 4
  %17 = alloca i32, align 4
  %18 = alloca i32, align 4
  %19 = alloca i32, align 4
  %20 = alloca i32, align 4
  %21 = alloca i32, align 4
  %22 = alloca i32, align 4
  store i32 %0, ptr %8, align 4, !tbaa !7
  store ptr %1, ptr %9, align 8, !tbaa !27
  store i32 %2, ptr %10, align 4, !tbaa !7
  store ptr %3, ptr %11, align 8, !tbaa !27
  store i32 %4, ptr %12, align 4, !tbaa !7
  store ptr %5, ptr %13, align 8, !tbaa !3
  call void @llvm.lifetime.start.p0(i64 512, ptr %14) #8
  call void @llvm.lifetime.start.p0(i64 68, ptr %15) #8
  call void @llvm.lifetime.start.p0(i64 4, ptr %16) #8
  store i32 0, ptr %16, align 4, !tbaa !7
  call void @llvm.lifetime.start.p0(i64 4, ptr %17) #8
  call void @llvm.lifetime.start.p0(i64 4, ptr %18) #8
  call void @llvm.lifetime.start.p0(i64 4, ptr %19) #8
  call void @llvm.lifetime.start.p0(i64 4, ptr %20) #8
  %23 = load i32, ptr %8, align 4, !tbaa !7
  %24 = call i32 @wc_HashGetDigestSize(i32 noundef %23)
  store i32 %24, ptr %17, align 4, !tbaa !7
  store i32 0, ptr %19, align 4, !tbaa !7
  store i32 0, ptr %20, align 4, !tbaa !7
  %25 = getelementptr inbounds [68 x i8], ptr %15, i64 0, i64 0
  call void @llvm.memset.p0.i64(ptr align 16 %25, i8 0, i64 68, i1 false)
  %26 = load i32, ptr %17, align 4, !tbaa !7
  %27 = icmp slt i32 %26, 0
  br i1 %27, label %28, label %30

28:                                               ; preds = %6
  %29 = load i32, ptr %17, align 4, !tbaa !7
  store i32 %29, ptr %7, align 4
  store i32 1, ptr %21, align 4
  br label %138

30:                                               ; preds = %6
  %31 = load i32, ptr %10, align 4, !tbaa !7
  %32 = add i32 %31, 4
  %33 = zext i32 %32 to i64
  %34 = icmp ugt i64 %33, 68
  br i1 %34, label %39, label %35

35:                                               ; preds = %30
  %36 = load i32, ptr %17, align 4, !tbaa !7
  %37 = zext i32 %36 to i64
  %38 = icmp ugt i64 %37, 68
  br i1 %38, label %39, label %55

39:                                               ; preds = %35, %30
  %40 = load i32, ptr %10, align 4, !tbaa !7
  %41 = add i32 %40, 4
  %42 = load i32, ptr %17, align 4, !tbaa !7
  %43 = icmp ugt i32 %41, %42
  br i1 %43, label %44, label %47

44:                                               ; preds = %39
  %45 = load i32, ptr %10, align 4, !tbaa !7
  %46 = add i32 %45, 4
  br label %49

47:                                               ; preds = %39
  %48 = load i32, ptr %17, align 4, !tbaa !7
  br label %49

49:                                               ; preds = %47, %44
  %50 = phi i32 [ %46, %44 ], [ %48, %47 ]
  store i32 %50, ptr %16, align 4, !tbaa !7
  %51 = load i32, ptr %16, align 4, !tbaa !7
  %52 = icmp ugt i32 %51, 512
  br i1 %52, label %53, label %54

53:                                               ; preds = %49
  store i32 -173, ptr %7, align 4
  store i32 1, ptr %21, align 4
  br label %138

54:                                               ; preds = %49
  br label %56

55:                                               ; preds = %35
  store i32 68, ptr %16, align 4, !tbaa !7
  br label %56

56:                                               ; preds = %55, %54
  br label %57

57:                                               ; preds = %133, %56
  call void @llvm.lifetime.start.p0(i64 4, ptr %22) #8
  store i32 0, ptr %22, align 4, !tbaa !7
  %58 = getelementptr inbounds [512 x i8], ptr %14, i64 0, i64 0
  %59 = load ptr, ptr %9, align 8, !tbaa !27
  %60 = load i32, ptr %10, align 4, !tbaa !7
  %61 = zext i32 %60 to i64
  call void @llvm.memcpy.p0.p0.i64(ptr align 16 %58, ptr align 1 %59, i64 %61, i1 false)
  %62 = load i32, ptr %19, align 4, !tbaa !7
  %63 = lshr i32 %62, 24
  %64 = and i32 %63, 255
  %65 = trunc i32 %64 to i8
  %66 = load i32, ptr %10, align 4, !tbaa !7
  %67 = zext i32 %66 to i64
  %68 = getelementptr inbounds nuw [512 x i8], ptr %14, i64 0, i64 %67
  store i8 %65, ptr %68, align 1, !tbaa !28
  %69 = load i32, ptr %19, align 4, !tbaa !7
  %70 = lshr i32 %69, 16
  %71 = and i32 %70, 255
  %72 = trunc i32 %71 to i8
  %73 = load i32, ptr %10, align 4, !tbaa !7
  %74 = add i32 %73, 1
  %75 = zext i32 %74 to i64
  %76 = getelementptr inbounds nuw [512 x i8], ptr %14, i64 0, i64 %75
  store i8 %72, ptr %76, align 1, !tbaa !28
  %77 = load i32, ptr %19, align 4, !tbaa !7
  %78 = lshr i32 %77, 8
  %79 = and i32 %78, 255
  %80 = trunc i32 %79 to i8
  %81 = load i32, ptr %10, align 4, !tbaa !7
  %82 = add i32 %81, 2
  %83 = zext i32 %82 to i64
  %84 = getelementptr inbounds nuw [512 x i8], ptr %14, i64 0, i64 %83
  store i8 %80, ptr %84, align 1, !tbaa !28
  %85 = load i32, ptr %19, align 4, !tbaa !7
  %86 = and i32 %85, 255
  %87 = trunc i32 %86 to i8
  %88 = load i32, ptr %10, align 4, !tbaa !7
  %89 = add i32 %88, 3
  %90 = zext i32 %89 to i64
  %91 = getelementptr inbounds nuw [512 x i8], ptr %14, i64 0, i64 %90
  store i8 %87, ptr %91, align 1, !tbaa !28
  %92 = load i32, ptr %8, align 4, !tbaa !7
  %93 = getelementptr inbounds [512 x i8], ptr %14, i64 0, i64 0
  %94 = load i32, ptr %10, align 4, !tbaa !7
  %95 = add i32 %94, 4
  %96 = getelementptr inbounds [512 x i8], ptr %14, i64 0, i64 0
  %97 = load i32, ptr %16, align 4, !tbaa !7
  %98 = call i32 @wc_Hash(i32 noundef %92, ptr noundef %93, i32 noundef %95, ptr noundef %96, i32 noundef %97)
  store i32 %98, ptr %18, align 4, !tbaa !7
  %99 = load i32, ptr %18, align 4, !tbaa !7
  %100 = icmp ne i32 %99, 0
  br i1 %100, label %101, label %103

101:                                              ; preds = %57
  %102 = load i32, ptr %18, align 4, !tbaa !7
  store i32 %102, ptr %7, align 4
  store i32 1, ptr %21, align 4
  br label %130

103:                                              ; preds = %57
  store i32 0, ptr %22, align 4, !tbaa !7
  br label %104

104:                                              ; preds = %124, %103
  %105 = load i32, ptr %22, align 4, !tbaa !7
  %106 = load i32, ptr %17, align 4, !tbaa !7
  %107 = icmp slt i32 %105, %106
  br i1 %107, label %108, label %112

108:                                              ; preds = %104
  %109 = load i32, ptr %20, align 4, !tbaa !7
  %110 = load i32, ptr %12, align 4, !tbaa !7
  %111 = icmp ult i32 %109, %110
  br label %112

112:                                              ; preds = %108, %104
  %113 = phi i1 [ false, %104 ], [ %111, %108 ]
  br i1 %113, label %114, label %127

114:                                              ; preds = %112
  %115 = load i32, ptr %22, align 4, !tbaa !7
  %116 = sext i32 %115 to i64
  %117 = getelementptr inbounds [512 x i8], ptr %14, i64 0, i64 %116
  %118 = load i8, ptr %117, align 1, !tbaa !28
  %119 = load ptr, ptr %11, align 8, !tbaa !27
  %120 = load i32, ptr %20, align 4, !tbaa !7
  %121 = add i32 %120, 1
  store i32 %121, ptr %20, align 4, !tbaa !7
  %122 = zext i32 %120 to i64
  %123 = getelementptr inbounds nuw i8, ptr %119, i64 %122
  store i8 %118, ptr %123, align 1, !tbaa !28
  br label %124

124:                                              ; preds = %114
  %125 = load i32, ptr %22, align 4, !tbaa !7
  %126 = add nsw i32 %125, 1
  store i32 %126, ptr %22, align 4, !tbaa !7
  br label %104, !llvm.loop !52

127:                                              ; preds = %112
  %128 = load i32, ptr %19, align 4, !tbaa !7
  %129 = add i32 %128, 1
  store i32 %129, ptr %19, align 4, !tbaa !7
  store i32 0, ptr %21, align 4
  br label %130

130:                                              ; preds = %127, %101
  call void @llvm.lifetime.end.p0(i64 4, ptr %22) #8
  %131 = load i32, ptr %21, align 4
  switch i32 %131, label %138 [
    i32 0, label %132
  ]

132:                                              ; preds = %130
  br label %133

133:                                              ; preds = %132
  %134 = load i32, ptr %20, align 4, !tbaa !7
  %135 = load i32, ptr %12, align 4, !tbaa !7
  %136 = icmp ult i32 %134, %135
  br i1 %136, label %57, label %137, !llvm.loop !53

137:                                              ; preds = %133
  store i32 0, ptr %7, align 4
  store i32 1, ptr %21, align 4
  br label %138

138:                                              ; preds = %137, %130, %53, %28
  call void @llvm.lifetime.end.p0(i64 4, ptr %20) #8
  call void @llvm.lifetime.end.p0(i64 4, ptr %19) #8
  call void @llvm.lifetime.end.p0(i64 4, ptr %18) #8
  call void @llvm.lifetime.end.p0(i64 4, ptr %17) #8
  call void @llvm.lifetime.end.p0(i64 4, ptr %16) #8
  call void @llvm.lifetime.end.p0(i64 68, ptr %15) #8
  call void @llvm.lifetime.end.p0(i64 512, ptr %14) #8
  %139 = load i32, ptr %7, align 4
  ret i32 %139
}