; Function Attrs: nounwind uwtable
define internal fastcc i32 @RsaMGF1(i32 noundef range(i32 4, 18) %0, ptr noundef readonly captures(none) %1, i32 noundef %2, ptr noundef writeonly captures(none) %3, i32 noundef %4) unnamed_addr #0 {
  %6 = alloca [512 x i8], align 16
  call void @llvm.lifetime.start.p0(i64 512, ptr nonnull %6) #12
  %7 = tail call i32 @wc_HashGetDigestSize(i32 noundef %0) #12
  %.fr7 = freeze i32 %7
  %8 = icmp slt i32 %.fr7, 0
  br i1 %8, label %.thread, label %9

9:                                                ; preds = %5
  %10 = add i32 %2, 4
  %11 = icmp ugt i32 %10, 68
  %12 = icmp samesign ugt i32 %.fr7, 68
  %or.cond = or i1 %11, %12
  br i1 %or.cond, label %13, label %16

13:                                               ; preds = %9
  %14 = tail call i32 @llvm.umax.i32(i32 %10, i32 %.fr7)
  %15 = icmp ugt i32 %14, 512
  br i1 %15, label %.thread, label %16

16:                                               ; preds = %9, %13
  %.046 = phi i32 [ %14, %13 ], [ 68, %9 ]
  %17 = zext i32 %2 to i64
  %18 = getelementptr inbounds nuw [512 x i8], ptr %6, i64 0, i64 %17
  %19 = add i32 %2, 1
  %20 = zext i32 %19 to i64
  %21 = getelementptr inbounds nuw [512 x i8], ptr %6, i64 0, i64 %20
  %22 = add i32 %2, 2
  %23 = zext i32 %22 to i64
  %24 = getelementptr inbounds nuw [512 x i8], ptr %6, i64 0, i64 %23
  %25 = add i32 %2, 3
  %26 = zext i32 %25 to i64
  %27 = getelementptr inbounds nuw [512 x i8], ptr %6, i64 0, i64 %26
  %.not8 = icmp eq i32 %.fr7, 0
  br i1 %.not8, label %.split.us, label %.split.preheader

.split.preheader:                                 ; preds = %16
  %28 = add nsw i32 %.fr7, -1
  %29 = zext nneg i32 %.fr7 to i64
  %30 = zext i32 %4 to i64
  br label %.split

.split.us:                                        ; preds = %16
  %.not9 = icmp eq i32 %4, 0
  br i1 %.not9, label %.split.us.split, label %.preheader.us.us, !llvm.loop !41

.preheader.us.us:                                 ; preds = %.split.us, %.preheader.us.us
  %.041.us.us = phi i32 [ %39, %.preheader.us.us ], [ 0, %.split.us ]
  call void @llvm.memcpy.p0.p0.i64(ptr nonnull align 16 %6, ptr align 1 %1, i64 %17, i1 false)
  %31 = lshr i32 %.041.us.us, 24
  %32 = trunc nuw i32 %31 to i8
  store i8 %32, ptr %18, align 1, !tbaa !20
  %33 = lshr i32 %.041.us.us, 16
  %34 = trunc i32 %33 to i8
  store i8 %34, ptr %21, align 1, !tbaa !20
  %35 = lshr i32 %.041.us.us, 8
  %36 = trunc i32 %35 to i8
  store i8 %36, ptr %24, align 1, !tbaa !20
  %37 = trunc i32 %.041.us.us to i8
  store i8 %37, ptr %27, align 1, !tbaa !20
  %38 = call i32 @wc_Hash(i32 noundef %0, ptr noundef nonnull %6, i32 noundef %10, ptr noundef nonnull %6, i32 noundef %.046) #12
  %.not.us.us = icmp eq i32 %38, 0
  %39 = add i32 %.041.us.us, 1
  br i1 %.not.us.us, label %.preheader.us.us, label %.thread

.split.us.split:                                  ; preds = %.split.us
  call void @llvm.memcpy.p0.p0.i64(ptr nonnull align 16 %6, ptr align 1 %1, i64 %17, i1 false)
  store i8 0, ptr %18, align 1, !tbaa !20
  store i8 0, ptr %21, align 1, !tbaa !20
  store i8 0, ptr %24, align 1, !tbaa !20
  store i8 0, ptr %27, align 1, !tbaa !20
  %40 = call i32 @wc_Hash(i32 noundef %0, ptr noundef nonnull %6, i32 noundef %10, ptr noundef nonnull %6, i32 noundef %.046) #12
  br label %.thread

.split:                                           ; preds = %.split.preheader, %._crit_edge
  %.041 = phi i32 [ %59, %._crit_edge ], [ 0, %.split.preheader ]
  %.040 = phi i32 [ %.2.lcssa, %._crit_edge ], [ 0, %.split.preheader ]
  call void @llvm.memcpy.p0.p0.i64(ptr nonnull align 16 %6, ptr align 1 %1, i64 %17, i1 false)
  %41 = lshr i32 %.041, 24
  %42 = trunc nuw i32 %41 to i8
  store i8 %42, ptr %18, align 1, !tbaa !20
  %43 = lshr i32 %.041, 16
  %44 = trunc i32 %43 to i8
  store i8 %44, ptr %21, align 1, !tbaa !20
  %45 = lshr i32 %.041, 8
  %46 = trunc i32 %45 to i8
  store i8 %46, ptr %24, align 1, !tbaa !20
  %47 = trunc i32 %.041 to i8
  store i8 %47, ptr %27, align 1, !tbaa !20
  %48 = call i32 @wc_Hash(i32 noundef %0, ptr noundef nonnull %6, i32 noundef %10, ptr noundef nonnull %6, i32 noundef %.046) #12
  %.not = icmp eq i32 %48, 0
  br i1 %.not, label %.preheader, label %.thread

.preheader:                                       ; preds = %.split
  %49 = icmp ult i32 %.040, %4
  br i1 %49, label %.lr.ph.preheader, label %._crit_edge

.lr.ph.preheader:                                 ; preds = %.preheader
  %50 = zext i32 %.040 to i64
  %scevgep = getelementptr i8, ptr %3, i64 %50
  %51 = xor i32 %.040, -1
  %52 = add i32 %4, %51
  %53 = call i32 @llvm.umin.i32(i32 %52, i32 %28)
  %umin = zext i32 %53 to i64
  %54 = add nuw nsw i64 %umin, 1
  call void @llvm.memcpy.p0.p0.i64(ptr noundef nonnull align 1 dereferenceable(1) %scevgep, ptr noundef nonnull align 16 dereferenceable(1) %6, i64 %54, i1 false), !tbaa !20
  br label %.lr.ph

.lr.ph:                                           ; preds = %.lr.ph.preheader, %.lr.ph
  %indvars.iv12 = phi i64 [ %50, %.lr.ph.preheader ], [ %indvars.iv.next13, %.lr.ph ]
  %indvars.iv = phi i64 [ 0, %.lr.ph.preheader ], [ %indvars.iv.next, %.lr.ph ]
  %indvars.iv.next13 = add nuw nsw i64 %indvars.iv12, 1
  %indvars.iv.next = add nuw nsw i64 %indvars.iv, 1
  %55 = icmp samesign ult i64 %indvars.iv.next, %29
  %56 = icmp samesign ult i64 %indvars.iv.next13, %30
  %57 = select i1 %55, i1 %56, i1 false
  br i1 %57, label %.lr.ph, label %._crit_edge.loopexit, !llvm.loop !42

._crit_edge.loopexit:                             ; preds = %.lr.ph
  %58 = trunc nuw i64 %indvars.iv.next13 to i32
  br label %._crit_edge

._crit_edge:                                      ; preds = %._crit_edge.loopexit, %.preheader
  %.2.lcssa = phi i32 [ %.040, %.preheader ], [ %58, %._crit_edge.loopexit ]
  %59 = add i32 %.041, 1
  %60 = icmp ult i32 %.2.lcssa, %4
  br i1 %60, label %.split, label %.thread, !llvm.loop !41

.thread:                                          ; preds = %._crit_edge, %.split, %.preheader.us.us, %.split.us.split, %13, %5
  %.043 = phi i32 [ %.fr7, %5 ], [ -173, %13 ], [ %40, %.split.us.split ], [ %38, %.preheader.us.us ], [ %48, %.split ], [ 0, %._crit_edge ]
  call void @llvm.lifetime.end.p0(i64 512, ptr nonnull %6) #12
  ret i32 %.043
}